target datalayout = "e-m:e-p270:32:32-p271:32:32-p272:64:64-i64:64-i128:128-f80:128-n8:16:32:64-S128"
target triple = "x86_64-pc-linux-gnu"

%struct.ImVec2 = type { float, float }
%struct.ExampleTreeNode = type { [28 x i8], i32, ptr, %struct.ImVector.13, i16, i8, i8, i32, %struct.ImVec2 }
%struct.ImVector.13 = type { i32, i32, ptr }

; Function Attrs: inlinehint mustprogress nounwind uwtable
define linkonce_odr noundef ptr @_ZN8ImVectorIP15ExampleTreeNodeE3endEv(ptr noundef nonnull align 8 dereferenceable(16) %0) #7 comdat align 2 {
  %2 = alloca ptr, align 8
  store ptr %0, ptr %2, align 8, !tbaa !393
  %3 = load ptr, ptr %2, align 8
  %4 = getelementptr inbounds nuw %struct.ImVector.13, ptr %3, i32 0, i32 2
  %5 = load ptr, ptr %4, align 8, !tbaa !397
  %6 = getelementptr inbounds nuw %struct.ImVector.13, ptr %3, i32 0, i32 0
  %7 = load i32, ptr %6, align 8, !tbaa !399
  %8 = sext i32 %7 to i64
  %9 = getelementptr inbounds ptr, ptr %5, i64 %8
  ret ptr %9
}

; Function Attrs: inlinehint mustprogress nounwind uwtable
define linkonce_odr noundef ptr @_ZN8ImVectorIP15ExampleTreeNodeE5beginEv(ptr noundef nonnull align 8 dereferenceable(16) %0) #7 comdat align 2 {
  %2 = alloca ptr, align 8
  store ptr %0, ptr %2, align 8, !tbaa !393
  %3 = load ptr, ptr %2, align 8
  %4 = getelementptr inbounds nuw %struct.ImVector.13, ptr %3, i32 0, i32 2
  %5 = load ptr, ptr %4, align 8, !tbaa !397
  ret ptr %5
}

; Function Attrs: mustprogress uwtable
define internal noundef zeroext i1 @_ZZL25ShowDemoWindowMultiSelectP19ImGuiDemoWindowDataEN16ExampleTreeFuncs15TreeNodeGetOpenEP15ExampleTreeNode(ptr noundef %0) #0 align 2 {
  %2 = alloca ptr, align 8
  store ptr %0, ptr %2, align 8, !tbaa !392
  %3 = call noundef ptr @_ZN5ImGui15GetStateStorageEv()
  %4 = load ptr, ptr %2, align 8, !tbaa !392
  %5 = getelementptr inbounds nuw %struct.ExampleTreeNode, ptr %4, i32 0, i32 1
  %6 = load i32, ptr %5, align 4, !tbaa !499
  %7 = call noundef zeroext i1 @_ZNK12ImGuiStorage7GetBoolEjb(ptr noundef nonnull align 8 dereferenceable(16) %3, i32 noundef %6, i1 noundef zeroext false)
  ret i1 %7
}

; Function Attrs: mustprogress uwtable
define internal void @_ZZL25ShowDemoWindowMultiSelectP19ImGuiDemoWindowDataEN16ExampleTreeFuncs21TreeSetAllInOpenNodesEP15ExampleTreeNodeP26ImGuiSelectionBasicStorageb(ptr noundef %0, ptr noundef %1, i1 noundef zeroext %2) #0 align 2 {
  %4 = alloca ptr, align 8
  %5 = alloca ptr, align 8
  %6 = alloca i8, align 1
  %7 = alloca ptr, align 8
  %8 = alloca ptr, align 8
  %9 = alloca ptr, align 8
  %10 = alloca ptr, align 8
  store ptr %0, ptr %4, align 8, !tbaa !392
  store ptr %1, ptr %5, align 8, !tbaa !435
  %11 = zext i1 %2 to i8
  store i8 %11, ptr %6, align 1, !tbaa !35
  %12 = load ptr, ptr %4, align 8, !tbaa !392
  %13 = getelementptr inbounds nuw %struct.ExampleTreeNode, ptr %12, i32 0, i32 2
  %14 = load ptr, ptr %13, align 8, !tbaa !511
  %15 = icmp ne ptr %14, null
  br i1 %15, label %16, label %23

16:                                               ; preds = %3
  %17 = load ptr, ptr %5, align 8, !tbaa !435
  %18 = load ptr, ptr %4, align 8, !tbaa !392
  %19 = getelementptr inbounds nuw %struct.ExampleTreeNode, ptr %18, i32 0, i32 1
  %20 = load i32, ptr %19, align 4, !tbaa !499
  %21 = load i8, ptr %6, align 1, !tbaa !35, !range !13, !noundef !14
  %22 = trunc i8 %21 to i1
  call void @_ZN26ImGuiSelectionBasicStorage15SetItemSelectedEjb(ptr noundef nonnull align 8 dereferenceable(48) %17, i32 noundef %20, i1 noundef zeroext %22)
  br label %23

23:                                               ; preds = %16, %3
  %24 = load ptr, ptr %4, align 8, !tbaa !392
  %25 = getelementptr inbounds nuw %struct.ExampleTreeNode, ptr %24, i32 0, i32 2
  %26 = load ptr, ptr %25, align 8, !tbaa !511
  %27 = icmp eq ptr %26, null
  br i1 %27, label %31, label %28

28:                                               ; preds = %23
  %29 = load ptr, ptr %4, align 8, !tbaa !392
  %30 = call noundef zeroext i1 @_ZZL25ShowDemoWindowMultiSelectP19ImGuiDemoWindowDataEN16ExampleTreeFuncs15TreeNodeGetOpenEP15ExampleTreeNode(ptr noundef %29)
  br i1 %30, label %31, label %54

31:                                               ; preds = %28, %23
  call void @llvm.lifetime.start.p0(i64 8, ptr %7) #2
  %32 = load ptr, ptr %4, align 8, !tbaa !392
  %33 = getelementptr inbounds nuw %struct.ExampleTreeNode, ptr %32, i32 0, i32 3
  store ptr %33, ptr %7, align 8, !tbaa !393
  call void @llvm.lifetime.start.p0(i64 8, ptr %8) #2
  %34 = load ptr, ptr %7, align 8, !tbaa !393
  %35 = call noundef ptr @_ZN8ImVectorIP15ExampleTreeNodeE5beginEv(ptr noundef nonnull align 8 dereferenceable(16) %34)
  store ptr %35, ptr %8, align 8, !tbaa !395
  call void @llvm.lifetime.start.p0(i64 8, ptr %9) #2
  %36 = load ptr, ptr %7, align 8, !tbaa !393
  %37 = call noundef ptr @_ZN8ImVectorIP15ExampleTreeNodeE3endEv(ptr noundef nonnull align 8 dereferenceable(16) %36)
  store ptr %37, ptr %9, align 8, !tbaa !395
  br label %38

38:                                               ; preds = %50, %31
  %39 = load ptr, ptr %8, align 8, !tbaa !395
  %40 = load ptr, ptr %9, align 8, !tbaa !395
  %41 = icmp ne ptr %39, %40
  br i1 %41, label %43, label %42

42:                                               ; preds = %38
  call void @llvm.lifetime.end.p0(i64 8, ptr %9) #2
  call void @llvm.lifetime.end.p0(i64 8, ptr %8) #2
  call void @llvm.lifetime.end.p0(i64 8, ptr %7) #2
  br label %53

43:                                               ; preds = %38
  call void @llvm.lifetime.start.p0(i64 8, ptr %10) #2
  %44 = load ptr, ptr %8, align 8, !tbaa !395
  %45 = load ptr, ptr %44, align 8, !tbaa !392
  store ptr %45, ptr %10, align 8, !tbaa !392
  %46 = load ptr, ptr %10, align 8, !tbaa !392
  %47 = load ptr, ptr %5, align 8, !tbaa !435
  %48 = load i8, ptr %6, align 1, !tbaa !35, !range !13, !noundef !14
  %49 = trunc i8 %48 to i1
  call void @_ZZL25ShowDemoWindowMultiSelectP19ImGuiDemoWindowDataEN16ExampleTreeFuncs21TreeSetAllInOpenNodesEP15ExampleTreeNodeP26ImGuiSelectionBasicStorageb(ptr noundef %46, ptr noundef %47, i1 noundef zeroext %49)
  call void @llvm.lifetime.end.p0(i64 8, ptr %10) #2
  br label %50

50:                                               ; preds = %43
  %51 = load ptr, ptr %8, align 8, !tbaa !395
  %52 = getelementptr inbounds nuw ptr, ptr %51, i32 1
  store ptr %52, ptr %8, align 8, !tbaa !395
  br label %38

53:                                               ; preds = %42
  br label %54

54:                                               ; preds = %53, %28
  ret void
}