; Function Attrs: mustprogress uwtable
define internal fastcc void @_ZZL25ShowDemoWindowMultiSelectP19ImGuiDemoWindowDataEN16ExampleTreeFuncs21TreeSetAllInOpenNodesEP15ExampleTreeNodeP26ImGuiSelectionBasicStorageb(ptr noundef readonly captures(none) %0) unnamed_addr #4 align 2 {
  %2 = getelementptr inbounds nuw i8, ptr %0, i64 32
  %3 = load ptr, ptr %2, align 8, !tbaa !476
  %.not = icmp eq ptr %3, null
  br i1 %.not, label %.thread, label %4

4:                                                ; preds = %1
  %5 = getelementptr inbounds nuw i8, ptr %0, i64 28
  %6 = load i32, ptr %5, align 4, !tbaa !473
  tail call void @_ZN26ImGuiSelectionBasicStorage15SetItemSelectedEjb(ptr noundef nonnull align 8 dereferenceable(48) @_ZZL25ShowDemoWindowMultiSelectP19ImGuiDemoWindowDataE9selection_4, i32 noundef %6, i1 noundef zeroext true)
  %.pr = load ptr, ptr %2, align 8, !tbaa !476
  %7 = icmp eq ptr %.pr, null
  br i1 %7, label %.thread, label %8

8:                                                ; preds = %4
  %9 = tail call noundef ptr @_ZN5ImGui15GetStateStorageEv()
  %10 = load i32, ptr %5, align 4, !tbaa !473
  %11 = tail call noundef zeroext i1 @_ZNK12ImGuiStorage7GetBoolEjb(ptr noundef nonnull align 8 dereferenceable(16) %9, i32 noundef %10, i1 noundef zeroext false)
  br i1 %11, label %.thread, label %.loopexit

.thread:                                          ; preds = %1, %8, %4
  %12 = getelementptr inbounds nuw i8, ptr %0, i64 40
  %13 = getelementptr inbounds nuw i8, ptr %0, i64 48
  %14 = load ptr, ptr %13, align 8, !tbaa !401
  %15 = load i32, ptr %12, align 8, !tbaa !404
  %16 = sext i32 %15 to i64
  %17 = getelementptr inbounds ptr, ptr %14, i64 %16
  %.not151 = icmp eq i32 %15, 0
  br i1 %.not151, label %.loopexit, label %.lr.ph

.lr.ph:                                           ; preds = %.thread, %.lr.ph
  %.02 = phi ptr [ %19, %.lr.ph ], [ %14, %.thread ]
  %18 = load ptr, ptr %.02, align 8, !tbaa !405
  tail call fastcc void @_ZZL25ShowDemoWindowMultiSelectP19ImGuiDemoWindowDataEN16ExampleTreeFuncs21TreeSetAllInOpenNodesEP15ExampleTreeNodeP26ImGuiSelectionBasicStorageb(ptr noundef %18)
  %19 = getelementptr inbounds nuw i8, ptr %.02, i64 8
  %.not15 = icmp eq ptr %19, %17
  br i1 %.not15, label %.loopexit, label %.lr.ph

.loopexit:                                        ; preds = %.lr.ph, %.thread, %8
  ret void
}